target datalayout = "e-m:e-p270:32:32-p271:32:32-p272:64:64-i64:64-i128:128-f80:128-n8:16:32:64-S128"
target triple = "x86_64-pc-linux-gnu"

%struct._value_string_ext = type { ptr, i32, i32, ptr, ptr }

@hf_mikey = internal global [71 x i32] zeroinitializer, align 16
@err_vals_ext = internal global %struct._value_string_ext { ptr @_try_val_to_str_ext_init, i32 0, i32 13, ptr @err_vals, ptr @.str.269 }, align 8
@.str.300 = private unnamed_addr constant [5 x i8] c": %s\00", align 1
@.str.301 = private unnamed_addr constant [8 x i8] c"Unknown\00", align 1

; Function Attrs: null_pointer_is_valid sspstrong uwtable
define internal i32 @dissect_payload_err(ptr noundef %0, ptr noundef %1, ptr noundef %2, ptr noundef %3) #0 {
  %5 = alloca ptr, align 8
  %6 = alloca ptr, align 8
  %7 = alloca ptr, align 8
  %8 = alloca ptr, align 8
  %9 = alloca ptr, align 8
  %10 = alloca i8, align 1
  store ptr %0, ptr %5, align 8
  store ptr %1, ptr %6, align 8
  store ptr %2, ptr %7, align 8
  store ptr %3, ptr %8, align 8
  %11 = load ptr, ptr %8, align 8
  %12 = icmp ne ptr %11, null
  br i1 %12, label %13, label %30

13:                                               ; preds = %4
  call void @llvm.lifetime.start.p0(i64 8, ptr %9) #5
  call void @llvm.lifetime.start.p0(i64 1, ptr %10) #5
  %14 = load ptr, ptr %6, align 8
  %15 = call zeroext i8 @tvb_get_uint8(ptr noundef %14, i32 noundef 1)
  store i8 %15, ptr %10, align 1
  %16 = load ptr, ptr %8, align 8
  %17 = load i32, ptr getelementptr ([71 x i32], ptr @hf_mikey, i64 0, i64 46), align 8
  %18 = load ptr, ptr %6, align 8
  %19 = call ptr @proto_tree_add_item(ptr noundef %16, i32 noundef %17, ptr noundef %18, i32 noundef 1, i32 noundef 1, i32 noundef 0)
  %20 = load ptr, ptr %8, align 8
  %21 = load i32, ptr getelementptr ([71 x i32], ptr @hf_mikey, i64 0, i64 47), align 4
  %22 = load ptr, ptr %6, align 8
  %23 = call ptr @proto_tree_add_item(ptr noundef %20, i32 noundef %21, ptr noundef %22, i32 noundef 2, i32 noundef 2, i32 noundef 0)
  %24 = load ptr, ptr %8, align 8
  %25 = call ptr @proto_tree_get_parent(ptr noundef %24)
  store ptr %25, ptr %9, align 8
  %26 = load ptr, ptr %9, align 8
  %27 = load i8, ptr %10, align 1
  %28 = zext i8 %27 to i32
  %29 = call ptr @val_to_str_ext_const(i32 noundef %28, ptr noundef @err_vals_ext, ptr noundef @.str.301)
  call void (ptr, ptr, ...) @proto_item_append_text(ptr noundef %26, ptr noundef @.str.300, ptr noundef %29)
  call void @llvm.lifetime.end.p0(i64 1, ptr %10) #5
  call void @llvm.lifetime.end.p0(i64 8, ptr %9) #5
  br label %30

30:                                               ; preds = %13, %4
  ret i32 4
}