; Function Attrs: null_pointer_is_valid sspstrong uwtable
define internal noundef i32 @dissect_payload_err(ptr readnone captures(none) %0, ptr noundef %1, ptr readnone captures(none) %2, ptr noundef %3) #0 {
  %.not = icmp eq ptr %3, null
  br i1 %.not, label %14, label %5

5:                                                ; preds = %4
  %6 = tail call zeroext i8 @tvb_get_uint8(ptr noundef %1, i32 noundef 1)
  %7 = load i32, ptr getelementptr inbounds nuw (i8, ptr @hf_mikey, i64 184), align 8
  %8 = tail call ptr @proto_tree_add_item(ptr noundef nonnull %3, i32 noundef %7, ptr noundef %1, i32 noundef 1, i32 noundef 1, i32 noundef 0)
  %9 = load i32, ptr getelementptr inbounds nuw (i8, ptr @hf_mikey, i64 188), align 4
  %10 = tail call ptr @proto_tree_add_item(ptr noundef nonnull %3, i32 noundef %9, ptr noundef %1, i32 noundef 2, i32 noundef 2, i32 noundef 0)
  %11 = tail call ptr @proto_tree_get_parent(ptr noundef nonnull %3)
  %12 = zext i8 %6 to i32
  %13 = tail call ptr @val_to_str_ext_const(i32 noundef %12, ptr noundef nonnull @err_vals_ext, ptr noundef nonnull @.str.301)
  tail call void (ptr, ptr, ...) @proto_item_append_text(ptr noundef %11, ptr noundef nonnull @.str.300, ptr noundef %13)
  br label %14

14:                                               ; preds = %5, %4
  ret i32 4
}